; Function Attrs: nofree nosync nounwind memory(readwrite, inaccessiblemem: none) uwtable
define void @Dar_LibBuildClear_rec(ptr noundef captures(none) %0, ptr noundef captures(none) %1) local_unnamed_addr #9 {
  %3 = load i64, ptr %0, align 4
  %4 = and i64 %3, 34359738368
  %.not10 = icmp eq i64 %4, 0
  br i1 %.not10, label %.lr.ph, label %tailrecurse._crit_edge

.lr.ph:                                           ; preds = %2
  %5 = load ptr, ptr @s_DarLib, align 8
  %6 = getelementptr inbounds nuw i8, ptr %5, i64 16096
  br label %tailrecurse

tailrecurse:                                      ; preds = %.lr.ph, %tailrecurse
  %.tr11 = phi ptr [ %0, %.lr.ph ], [ %23, %tailrecurse ]
  %7 = load i32, ptr %1, align 4
  %8 = add nsw i32 %7, 1
  store i32 %8, ptr %1, align 4
  %9 = load i64, ptr %.tr11, align 4
  %10 = and i32 %7, 268435455
  %11 = zext nneg i32 %10 to i64
  %12 = shl nuw i64 %11, 36
  %13 = and i64 %9, 68719476735
  %14 = or disjoint i64 %13, %12
  store i64 %14, ptr %.tr11, align 4
  %15 = load ptr, ptr %6, align 8
  %16 = getelementptr inbounds nuw %struct.Dar_LibDat_t_, ptr %15, i64 %11
  store ptr null, ptr %16, align 8
  %17 = load i64, ptr %.tr11, align 4
  %18 = and i64 %17, 65535
  %.val8 = load ptr, ptr %5, align 8
  %19 = getelementptr inbounds nuw %struct.Dar_LibObj_t_, ptr %.val8, i64 %18
  tail call void @Dar_LibBuildClear_rec(ptr noundef %19, ptr noundef nonnull %1)
  %20 = load i64, ptr %.tr11, align 4
  %21 = lshr i64 %20, 16
  %.val = load ptr, ptr %5, align 8
  %22 = and i64 %21, 65535
  %23 = getelementptr inbounds nuw %struct.Dar_LibObj_t_, ptr %.val, i64 %22
  %24 = load i64, ptr %23, align 4
  %25 = and i64 %24, 34359738368
  %.not = icmp eq i64 %25, 0
  br i1 %.not, label %tailrecurse, label %tailrecurse._crit_edge

tailrecurse._crit_edge:                           ; preds = %tailrecurse, %2
  ret void
}